; Function Attrs: nounwind uwtable
define void @Bac_PtrFree(ptr noundef %0) local_unnamed_addr #0 {
  %.not = icmp eq ptr %0, null
  br i1 %.not, label %13, label %.preheader

.preheader:                                       ; preds = %1
  %2 = getelementptr i8, ptr %0, i64 4
  %.val89 = load i32, ptr %2, align 4
  %3 = icmp sgt i32 %.val89, 1
  br i1 %3, label %.lr.ph, label %.critedge

.lr.ph:                                           ; preds = %.preheader
  %4 = getelementptr i8, ptr %0, i64 8
  br label %5

5:                                                ; preds = %.lr.ph, %5
  %indvars.iv = phi i64 [ 1, %.lr.ph ], [ %indvars.iv.next, %5 ]
  %.val = load ptr, ptr %4, align 8
  %6 = getelementptr inbounds nuw ptr, ptr %.val, i64 %indvars.iv
  %7 = load ptr, ptr %6, align 8
  tail call void @Bac_PtrFreeNtk(ptr noundef %7)
  %indvars.iv.next = add nuw nsw i64 %indvars.iv, 1
  %.val8 = load i32, ptr %2, align 4
  %8 = sext i32 %.val8 to i64
  %9 = icmp slt i64 %indvars.iv.next, %8
  br i1 %9, label %5, label %.critedge, !llvm.loop !6

.critedge:                                        ; preds = %5, %.preheader
  %10 = getelementptr inbounds nuw i8, ptr %0, i64 8
  %11 = load ptr, ptr %10, align 8
  %.not.i = icmp eq ptr %11, null
  br i1 %.not.i, label %Vec_PtrFree.exit, label %12

12:                                               ; preds = %.critedge
  tail call void @free(ptr noundef nonnull %11) #14
  br label %Vec_PtrFree.exit

Vec_PtrFree.exit:                                 ; preds = %.critedge, %12
  tail call void @free(ptr noundef nonnull %0) #14
  br label %13

13:                                               ; preds = %1, %Vec_PtrFree.exit
  ret void
}